; Function Attrs: mustprogress nofree norecurse nosync nounwind willreturn memory(write, argmem: readwrite, inaccessiblemem: none) uwtable
define noundef i64 @ZBUFFv04_decompressInit(ptr noundef captures(none) initializes((56, 64), (80, 104), (112, 124)) %0) local_unnamed_addr #8 {
  %2 = getelementptr inbounds nuw i8, ptr %0, i64 120
  store i32 1, ptr %2, align 8, !tbaa !29
  %3 = getelementptr inbounds nuw i8, ptr %0, i64 112
  store i64 0, ptr %3, align 8, !tbaa !30
  %4 = getelementptr inbounds nuw i8, ptr %0, i64 80
  %5 = getelementptr inbounds nuw i8, ptr %0, i64 56
  store i64 0, ptr %5, align 8, !tbaa !31
  tail call void @llvm.memset.p0.i64(ptr noundef nonnull align 8 dereferenceable(24) %4, i8 0, i64 24, i1 false)
  %6 = load ptr, ptr %0, align 8, !tbaa !24
  %7 = getelementptr inbounds nuw i8, ptr %6, i64 10288
  store i64 5, ptr %7, align 8, !tbaa !10
  %8 = getelementptr inbounds nuw i8, ptr %6, i64 10340
  store i32 0, ptr %8, align 4, !tbaa !16
  %9 = getelementptr inbounds nuw i8, ptr %6, i64 10256
  tail call void @llvm.memset.p0.i64(ptr noundef nonnull align 8 dereferenceable(32) %9, i8 0, i64 32, i1 false)
  ret i64 0
}